target datalayout = "e-m:e-p270:32:32-p271:32:32-p272:64:64-i64:64-i128:128-f80:128-n8:16:32:64-S128"
target triple = "x86_64-unknown-linux-gnu"

%struct.Node = type { i32, ptr, ptr, ptr, ptr, ptr, ptr, ptr, ptr, ptr, ptr, ptr, ptr, ptr, ptr, ptr, ptr, i8, ptr, ptr, ptr, ptr, ptr, ptr, i64, i64, ptr, ptr, ptr, ptr, ptr, ptr, ptr, i64, x86_fp80 }
%struct.Type = type { i32, i32, i32, i8, i8, ptr, ptr, ptr, ptr, i32, ptr, ptr, ptr, i8, i8, ptr, ptr, i8, ptr }
%struct.Member = type { ptr, ptr, ptr, ptr, i32, i32, i32, i8, i32, i32 }
%struct.InitDesg = type { ptr, i32, ptr, ptr }
%struct.Initializer = type { ptr, ptr, ptr, i8, ptr, ptr, ptr }

; Function Attrs: nounwind uwtable
define internal ptr @new_binary(i32 noundef %kind, ptr noundef %lhs, ptr noundef %rhs, ptr noundef %tok) #0 {
entry:
  %kind.addr = alloca i32, align 4
  %lhs.addr = alloca ptr, align 8
  %rhs.addr = alloca ptr, align 8
  %tok.addr = alloca ptr, align 8
  %node = alloca ptr, align 8
  store i32 %kind, ptr %kind.addr, align 4
  store ptr %lhs, ptr %lhs.addr, align 8
  store ptr %rhs, ptr %rhs.addr, align 8
  store ptr %tok, ptr %tok.addr, align 8
  %0 = load i32, ptr %kind.addr, align 4
  %1 = load ptr, ptr %tok.addr, align 8
  %call = call ptr @new_node(i32 noundef %0, ptr noundef %1)
  store ptr %call, ptr %node, align 8
  %2 = load ptr, ptr %lhs.addr, align 8
  %3 = load ptr, ptr %node, align 8
  %lhs1 = getelementptr inbounds %struct.Node, ptr %3, i32 0, i32 4
  store ptr %2, ptr %lhs1, align 16
  %4 = load ptr, ptr %rhs.addr, align 8
  %5 = load ptr, ptr %node, align 8
  %rhs2 = getelementptr inbounds %struct.Node, ptr %5, i32 0, i32 5
  store ptr %4, ptr %rhs2, align 8
  %6 = load ptr, ptr %node, align 8
  ret ptr %6
}

; Function Attrs: nounwind uwtable
define internal ptr @new_node(i32 noundef %kind, ptr noundef %tok) #0 {
entry:
  %kind.addr = alloca i32, align 4
  %tok.addr = alloca ptr, align 8
  %node = alloca ptr, align 8
  store i32 %kind, ptr %kind.addr, align 4
  store ptr %tok, ptr %tok.addr, align 8
  %call = call noalias ptr @calloc(i64 noundef 1, i64 noundef 288) #8
  store ptr %call, ptr %node, align 8
  %0 = load i32, ptr %kind.addr, align 4
  %1 = load ptr, ptr %node, align 8
  %kind1 = getelementptr inbounds %struct.Node, ptr %1, i32 0, i32 0
  store i32 %0, ptr %kind1, align 16
  %2 = load ptr, ptr %tok.addr, align 8
  %3 = load ptr, ptr %node, align 8
  %tok2 = getelementptr inbounds %struct.Node, ptr %3, i32 0, i32 3
  store ptr %2, ptr %tok2, align 8
  %4 = load ptr, ptr %node, align 8
  ret ptr %4
}

; Function Attrs: nounwind uwtable
define internal ptr @create_lvar_init(ptr noundef %init, ptr noundef %ty, ptr noundef %desg, ptr noundef %tok) #0 {
entry:
  %retval = alloca ptr, align 8
  %init.addr = alloca ptr, align 8
  %ty.addr = alloca ptr, align 8
  %desg.addr = alloca ptr, align 8
  %tok.addr = alloca ptr, align 8
  %node = alloca ptr, align 8
  %i = alloca i32, align 4
  %desg2 = alloca %struct.InitDesg, align 8
  %rhs = alloca ptr, align 8
  %node7 = alloca ptr, align 8
  %mem = alloca ptr, align 8
  %desg212 = alloca %struct.InitDesg, align 8
  %rhs17 = alloca ptr, align 8
  %mem32 = alloca ptr, align 8
  %desg237 = alloca %struct.InitDesg, align 8
  %lhs = alloca ptr, align 8
  store ptr %init, ptr %init.addr, align 8
  store ptr %ty, ptr %ty.addr, align 8
  store ptr %desg, ptr %desg.addr, align 8
  store ptr %tok, ptr %tok.addr, align 8
  %0 = load ptr, ptr %ty.addr, align 8
  %kind = getelementptr inbounds %struct.Type, ptr %0, i32 0, i32 0
  %1 = load i32, ptr %kind, align 8
  %cmp = icmp eq i32 %1, 12
  br i1 %cmp, label %if.then, label %if.end

if.then:                                          ; preds = %entry
  %2 = load ptr, ptr %tok.addr, align 8
  %call = call ptr @new_node(i32 noundef 0, ptr noundef %2)
  store ptr %call, ptr %node, align 8
  store i32 0, ptr %i, align 4
  br label %for.cond

for.cond:                                         ; preds = %for.inc, %if.then
  %3 = load i32, ptr %i, align 4
  %4 = load ptr, ptr %ty.addr, align 8
  %array_len = getelementptr inbounds %struct.Type, ptr %4, i32 0, i32 9
  %5 = load i32, ptr %array_len, align 8
  %cmp1 = icmp slt i32 %3, %5
  br i1 %cmp1, label %for.body, label %for.end

for.body:                                         ; preds = %for.cond
  %next = getelementptr inbounds %struct.InitDesg, ptr %desg2, i32 0, i32 0
  %6 = load ptr, ptr %desg.addr, align 8
  store ptr %6, ptr %next, align 8
  %idx = getelementptr inbounds %struct.InitDesg, ptr %desg2, i32 0, i32 1
  %7 = load i32, ptr %i, align 4
  store i32 %7, ptr %idx, align 8
  %member = getelementptr inbounds %struct.InitDesg, ptr %desg2, i32 0, i32 2
  store ptr null, ptr %member, align 8
  %var = getelementptr inbounds %struct.InitDesg, ptr %desg2, i32 0, i32 3
  store ptr null, ptr %var, align 8
  %8 = load ptr, ptr %init.addr, align 8
  %children = getelementptr inbounds %struct.Initializer, ptr %8, i32 0, i32 5
  %9 = load ptr, ptr %children, align 8
  %10 = load i32, ptr %i, align 4
  %idxprom = sext i32 %10 to i64
  %arrayidx = getelementptr inbounds ptr, ptr %9, i64 %idxprom
  %11 = load ptr, ptr %arrayidx, align 8
  %12 = load ptr, ptr %ty.addr, align 8
  %base = getelementptr inbounds %struct.Type, ptr %12, i32 0, i32 6
  %13 = load ptr, ptr %base, align 8
  %14 = load ptr, ptr %tok.addr, align 8
  %call2 = call ptr @create_lvar_init(ptr noundef %11, ptr noundef %13, ptr noundef %desg2, ptr noundef %14)
  store ptr %call2, ptr %rhs, align 8
  %15 = load ptr, ptr %node, align 8
  %16 = load ptr, ptr %rhs, align 8
  %17 = load ptr, ptr %tok.addr, align 8
  %call3 = call ptr @new_binary(i32 noundef 18, ptr noundef %15, ptr noundef %16, ptr noundef %17)
  store ptr %call3, ptr %node, align 8
  br label %for.inc

for.inc:                                          ; preds = %for.body
  %18 = load i32, ptr %i, align 4
  %inc = add nsw i32 %18, 1
  store i32 %inc, ptr %i, align 4
  br label %for.cond, !llvm.loop !47

for.end:                                          ; preds = %for.cond
  %19 = load ptr, ptr %node, align 8
  store ptr %19, ptr %retval, align 8
  br label %return

if.end:                                           ; preds = %entry
  %20 = load ptr, ptr %ty.addr, align 8
  %kind4 = getelementptr inbounds %struct.Type, ptr %20, i32 0, i32 0
  %21 = load i32, ptr %kind4, align 8
  %cmp5 = icmp eq i32 %21, 14
  br i1 %cmp5, label %land.lhs.true, label %if.end28

land.lhs.true:                                    ; preds = %if.end
  %22 = load ptr, ptr %init.addr, align 8
  %expr = getelementptr inbounds %struct.Initializer, ptr %22, i32 0, i32 4
  %23 = load ptr, ptr %expr, align 8
  %tobool = icmp ne ptr %23, null
  br i1 %tobool, label %if.end28, label %if.then6

if.then6:                                         ; preds = %land.lhs.true
  %24 = load ptr, ptr %tok.addr, align 8
  %call8 = call ptr @new_node(i32 noundef 0, ptr noundef %24)
  store ptr %call8, ptr %node7, align 8
  %25 = load ptr, ptr %ty.addr, align 8
  %members = getelementptr inbounds %struct.Type, ptr %25, i32 0, i32 12
  %26 = load ptr, ptr %members, align 8
  store ptr %26, ptr %mem, align 8
  br label %for.cond9

for.cond9:                                        ; preds = %for.inc25, %if.then6
  %27 = load ptr, ptr %mem, align 8
  %tobool10 = icmp ne ptr %27, null
  br i1 %tobool10, label %for.body11, label %for.end27

for.body11:                                       ; preds = %for.cond9
  %next13 = getelementptr inbounds %struct.InitDesg, ptr %desg212, i32 0, i32 0
  %28 = load ptr, ptr %desg.addr, align 8
  store ptr %28, ptr %next13, align 8
  %idx14 = getelementptr inbounds %struct.InitDesg, ptr %desg212, i32 0, i32 1
  store i32 0, ptr %idx14, align 8
  %member15 = getelementptr inbounds %struct.InitDesg, ptr %desg212, i32 0, i32 2
  %29 = load ptr, ptr %mem, align 8
  store ptr %29, ptr %member15, align 8
  %var16 = getelementptr inbounds %struct.InitDesg, ptr %desg212, i32 0, i32 3
  store ptr null, ptr %var16, align 8
  %30 = load ptr, ptr %init.addr, align 8
  %children18 = getelementptr inbounds %struct.Initializer, ptr %30, i32 0, i32 5
  %31 = load ptr, ptr %children18, align 8
  %32 = load ptr, ptr %mem, align 8
  %idx19 = getelementptr inbounds %struct.Member, ptr %32, i32 0, i32 4
  %33 = load i32, ptr %idx19, align 8
  %idxprom20 = sext i32 %33 to i64
  %arrayidx21 = getelementptr inbounds ptr, ptr %31, i64 %idxprom20
  %34 = load ptr, ptr %arrayidx21, align 8
  %35 = load ptr, ptr %mem, align 8
  %ty22 = getelementptr inbounds %struct.Member, ptr %35, i32 0, i32 1
  %36 = load ptr, ptr %ty22, align 8
  %37 = load ptr, ptr %tok.addr, align 8
  %call23 = call ptr @create_lvar_init(ptr noundef %34, ptr noundef %36, ptr noundef %desg212, ptr noundef %37)
  store ptr %call23, ptr %rhs17, align 8
  %38 = load ptr, ptr %node7, align 8
  %39 = load ptr, ptr %rhs17, align 8
  %40 = load ptr, ptr %tok.addr, align 8
  %call24 = call ptr @new_binary(i32 noundef 18, ptr noundef %38, ptr noundef %39, ptr noundef %40)
  store ptr %call24, ptr %node7, align 8
  br label %for.inc25

for.inc25:                                        ; preds = %for.body11
  %41 = load ptr, ptr %mem, align 8
  %next26 = getelementptr inbounds %struct.Member, ptr %41, i32 0, i32 0
  %42 = load ptr, ptr %next26, align 8
  store ptr %42, ptr %mem, align 8
  br label %for.cond9, !llvm.loop !48

for.end27:                                        ; preds = %for.cond9
  %43 = load ptr, ptr %node7, align 8
  store ptr %43, ptr %retval, align 8
  br label %return

if.end28:                                         ; preds = %land.lhs.true, %if.end
  %44 = load ptr, ptr %ty.addr, align 8
  %kind29 = getelementptr inbounds %struct.Type, ptr %44, i32 0, i32 0
  %45 = load i32, ptr %kind29, align 8
  %cmp30 = icmp eq i32 %45, 15
  br i1 %cmp30, label %if.then31, label %if.end48

if.then31:                                        ; preds = %if.end28
  %46 = load ptr, ptr %init.addr, align 8
  %mem33 = getelementptr inbounds %struct.Initializer, ptr %46, i32 0, i32 6
  %47 = load ptr, ptr %mem33, align 8
  %tobool34 = icmp ne ptr %47, null
  br i1 %tobool34, label %cond.true, label %cond.false

cond.true:                                        ; preds = %if.then31
  %48 = load ptr, ptr %init.addr, align 8
  %mem35 = getelementptr inbounds %struct.Initializer, ptr %48, i32 0, i32 6
  %49 = load ptr, ptr %mem35, align 8
  br label %cond.end

cond.false:                                       ; preds = %if.then31
  %50 = load ptr, ptr %ty.addr, align 8
  %members36 = getelementptr inbounds %struct.Type, ptr %50, i32 0, i32 12
  %51 = load ptr, ptr %members36, align 8
  br label %cond.end

cond.end:                                         ; preds = %cond.false, %cond.true
  %cond = phi ptr [ %49, %cond.true ], [ %51, %cond.false ]
  store ptr %cond, ptr %mem32, align 8
  %next38 = getelementptr inbounds %struct.InitDesg, ptr %desg237, i32 0, i32 0
  %52 = load ptr, ptr %desg.addr, align 8
  store ptr %52, ptr %next38, align 8
  %idx39 = getelementptr inbounds %struct.InitDesg, ptr %desg237, i32 0, i32 1
  store i32 0, ptr %idx39, align 8
  %member40 = getelementptr inbounds %struct.InitDesg, ptr %desg237, i32 0, i32 2
  %53 = load ptr, ptr %mem32, align 8
  store ptr %53, ptr %member40, align 8
  %var41 = getelementptr inbounds %struct.InitDesg, ptr %desg237, i32 0, i32 3
  store ptr null, ptr %var41, align 8
  %54 = load ptr, ptr %init.addr, align 8
  %children42 = getelementptr inbounds %struct.Initializer, ptr %54, i32 0, i32 5
  %55 = load ptr, ptr %children42, align 8
  %56 = load ptr, ptr %mem32, align 8
  %idx43 = getelementptr inbounds %struct.Member, ptr %56, i32 0, i32 4
  %57 = load i32, ptr %idx43, align 8
  %idxprom44 = sext i32 %57 to i64
  %arrayidx45 = getelementptr inbounds ptr, ptr %55, i64 %idxprom44
  %58 = load ptr, ptr %arrayidx45, align 8
  %59 = load ptr, ptr %mem32, align 8
  %ty46 = getelementptr inbounds %struct.Member, ptr %59, i32 0, i32 1
  %60 = load ptr, ptr %ty46, align 8
  %61 = load ptr, ptr %tok.addr, align 8
  %call47 = call ptr @create_lvar_init(ptr noundef %58, ptr noundef %60, ptr noundef %desg237, ptr noundef %61)
  store ptr %call47, ptr %retval, align 8
  br label %return

if.end48:                                         ; preds = %if.end28
  %62 = load ptr, ptr %init.addr, align 8
  %expr49 = getelementptr inbounds %struct.Initializer, ptr %62, i32 0, i32 4
  %63 = load ptr, ptr %expr49, align 8
  %tobool50 = icmp ne ptr %63, null
  br i1 %tobool50, label %if.end53, label %if.then51

if.then51:                                        ; preds = %if.end48
  %64 = load ptr, ptr %tok.addr, align 8
  %call52 = call ptr @new_node(i32 noundef 0, ptr noundef %64)
  store ptr %call52, ptr %retval, align 8
  br label %return

if.end53:                                         ; preds = %if.end48
  %65 = load ptr, ptr %desg.addr, align 8
  %66 = load ptr, ptr %tok.addr, align 8
  %call54 = call ptr @init_desg_expr(ptr noundef %65, ptr noundef %66)
  store ptr %call54, ptr %lhs, align 8
  %67 = load ptr, ptr %lhs, align 8
  %68 = load ptr, ptr %init.addr, align 8
  %expr55 = getelementptr inbounds %struct.Initializer, ptr %68, i32 0, i32 4
  %69 = load ptr, ptr %expr55, align 8
  %70 = load ptr, ptr %tok.addr, align 8
  %call56 = call ptr @new_binary(i32 noundef 16, ptr noundef %67, ptr noundef %69, ptr noundef %70)
  store ptr %call56, ptr %retval, align 8
  br label %return

return:                                           ; preds = %if.end53, %if.then51, %cond.end, %for.end27, %for.end
  %71 = load ptr, ptr %retval, align 8
  ret ptr %71
}