; Function Attrs: nounwind uwtable
define internal fastcc ptr @create_lvar_init(ptr nocapture noundef readonly %init, ptr nocapture noundef readonly %ty, ptr noundef %desg, ptr noundef %tok) unnamed_addr #0 {
entry:
  %desg2 = alloca %struct.InitDesg, align 8
  %desg212 = alloca %struct.InitDesg, align 8
  %desg237 = alloca %struct.InitDesg, align 8
  %0 = load i32, ptr %ty, align 8
  switch i32 %0, label %if.end48 [
    i32 12, label %if.then
    i32 14, label %land.lhs.true
    i32 15, label %if.then31
  ]

if.then:                                          ; preds = %entry
  %call.i = tail call noalias noundef dereferenceable_or_null(288) ptr @calloc(i64 noundef 1, i64 noundef 288) #14
  %tok2.i = getelementptr inbounds %struct.Node, ptr %call.i, i64 0, i32 3
  store ptr %tok, ptr %tok2.i, align 8
  %array_len = getelementptr inbounds %struct.Type, ptr %ty, i64 0, i32 9
  %1 = load i32, ptr %array_len, align 8
  %cmp156 = icmp sgt i32 %1, 0
  br i1 %cmp156, label %for.body.lr.ph, label %return

for.body.lr.ph:                                   ; preds = %if.then
  %idx = getelementptr inbounds %struct.InitDesg, ptr %desg2, i64 0, i32 1
  %member = getelementptr inbounds %struct.InitDesg, ptr %desg2, i64 0, i32 2
  %children = getelementptr inbounds %struct.Initializer, ptr %init, i64 0, i32 5
  %base = getelementptr inbounds %struct.Type, ptr %ty, i64 0, i32 6
  br label %for.body

for.body:                                         ; preds = %for.body.lr.ph, %for.body
  %indvars.iv = phi i64 [ 0, %for.body.lr.ph ], [ %indvars.iv.next, %for.body ]
  %node.058 = phi ptr [ %call.i, %for.body.lr.ph ], [ %call.i.i, %for.body ]
  store ptr %desg, ptr %desg2, align 8
  %2 = trunc i64 %indvars.iv to i32
  store i32 %2, ptr %idx, align 8
  call void @llvm.memset.p0.i64(ptr noundef nonnull align 8 dereferenceable(16) %member, i8 0, i64 16, i1 false)
  %3 = load ptr, ptr %children, align 8
  %arrayidx = getelementptr inbounds ptr, ptr %3, i64 %indvars.iv
  %4 = load ptr, ptr %arrayidx, align 8
  %5 = load ptr, ptr %base, align 8
  %call2 = call fastcc ptr @create_lvar_init(ptr noundef %4, ptr noundef %5, ptr noundef nonnull %desg2, ptr noundef %tok)
  %call.i.i = call noalias noundef dereferenceable_or_null(288) ptr @calloc(i64 noundef 1, i64 noundef 288) #14
  store i32 18, ptr %call.i.i, align 16
  %tok2.i.i = getelementptr inbounds %struct.Node, ptr %call.i.i, i64 0, i32 3
  store ptr %tok, ptr %tok2.i.i, align 8
  %lhs1.i = getelementptr inbounds %struct.Node, ptr %call.i.i, i64 0, i32 4
  store ptr %node.058, ptr %lhs1.i, align 16
  %rhs2.i = getelementptr inbounds %struct.Node, ptr %call.i.i, i64 0, i32 5
  store ptr %call2, ptr %rhs2.i, align 8
  %indvars.iv.next = add nuw nsw i64 %indvars.iv, 1
  %6 = load i32, ptr %array_len, align 8
  %7 = sext i32 %6 to i64
  %cmp1 = icmp slt i64 %indvars.iv.next, %7
  br i1 %cmp1, label %for.body, label %return, !llvm.loop !51

land.lhs.true:                                    ; preds = %entry
  %expr = getelementptr inbounds %struct.Initializer, ptr %init, i64 0, i32 4
  %8 = load ptr, ptr %expr, align 8
  %tobool.not = icmp eq ptr %8, null
  br i1 %tobool.not, label %if.then6, label %if.end53

if.then6:                                         ; preds = %land.lhs.true
  %call.i38 = tail call noalias noundef dereferenceable_or_null(288) ptr @calloc(i64 noundef 1, i64 noundef 288) #14
  %tok2.i39 = getelementptr inbounds %struct.Node, ptr %call.i38, i64 0, i32 3
  store ptr %tok, ptr %tok2.i39, align 8
  %members = getelementptr inbounds %struct.Type, ptr %ty, i64 0, i32 12
  %mem.052 = load ptr, ptr %members, align 8
  %tobool10.not53 = icmp eq ptr %mem.052, null
  br i1 %tobool10.not53, label %return, label %for.body11.lr.ph

for.body11.lr.ph:                                 ; preds = %if.then6
  %idx14 = getelementptr inbounds %struct.InitDesg, ptr %desg212, i64 0, i32 1
  %member15 = getelementptr inbounds %struct.InitDesg, ptr %desg212, i64 0, i32 2
  %var16 = getelementptr inbounds %struct.InitDesg, ptr %desg212, i64 0, i32 3
  %children18 = getelementptr inbounds %struct.Initializer, ptr %init, i64 0, i32 5
  br label %for.body11

for.body11:                                       ; preds = %for.body11.lr.ph, %for.body11
  %mem.055 = phi ptr [ %mem.052, %for.body11.lr.ph ], [ %mem.0, %for.body11 ]
  %node7.054 = phi ptr [ %call.i38, %for.body11.lr.ph ], [ %call.i.i40, %for.body11 ]
  store ptr %desg, ptr %desg212, align 8
  store i32 0, ptr %idx14, align 8
  store ptr %mem.055, ptr %member15, align 8
  store ptr null, ptr %var16, align 8
  %9 = load ptr, ptr %children18, align 8
  %idx19 = getelementptr inbounds %struct.Member, ptr %mem.055, i64 0, i32 4
  %10 = load i32, ptr %idx19, align 8
  %idxprom20 = sext i32 %10 to i64
  %arrayidx21 = getelementptr inbounds ptr, ptr %9, i64 %idxprom20
  %11 = load ptr, ptr %arrayidx21, align 8
  %ty22 = getelementptr inbounds %struct.Member, ptr %mem.055, i64 0, i32 1
  %12 = load ptr, ptr %ty22, align 8
  %call23 = call fastcc ptr @create_lvar_init(ptr noundef %11, ptr noundef %12, ptr noundef nonnull %desg212, ptr noundef %tok)
  %call.i.i40 = call noalias noundef dereferenceable_or_null(288) ptr @calloc(i64 noundef 1, i64 noundef 288) #14
  store i32 18, ptr %call.i.i40, align 16
  %tok2.i.i41 = getelementptr inbounds %struct.Node, ptr %call.i.i40, i64 0, i32 3
  store ptr %tok, ptr %tok2.i.i41, align 8
  %lhs1.i42 = getelementptr inbounds %struct.Node, ptr %call.i.i40, i64 0, i32 4
  store ptr %node7.054, ptr %lhs1.i42, align 16
  %rhs2.i43 = getelementptr inbounds %struct.Node, ptr %call.i.i40, i64 0, i32 5
  store ptr %call23, ptr %rhs2.i43, align 8
  %mem.0 = load ptr, ptr %mem.055, align 8
  %tobool10.not = icmp eq ptr %mem.0, null
  br i1 %tobool10.not, label %return, label %for.body11, !llvm.loop !52

if.then31:                                        ; preds = %entry
  %mem33 = getelementptr inbounds %struct.Initializer, ptr %init, i64 0, i32 6
  %13 = load ptr, ptr %mem33, align 8
  %tobool34.not = icmp eq ptr %13, null
  br i1 %tobool34.not, label %cond.false, label %cond.end

cond.false:                                       ; preds = %if.then31
  %members36 = getelementptr inbounds %struct.Type, ptr %ty, i64 0, i32 12
  %14 = load ptr, ptr %members36, align 8
  br label %cond.end

cond.end:                                         ; preds = %if.then31, %cond.false
  %cond = phi ptr [ %14, %cond.false ], [ %13, %if.then31 ]
  store ptr %desg, ptr %desg237, align 8
  %idx39 = getelementptr inbounds %struct.InitDesg, ptr %desg237, i64 0, i32 1
  store i32 0, ptr %idx39, align 8
  %member40 = getelementptr inbounds %struct.InitDesg, ptr %desg237, i64 0, i32 2
  store ptr %cond, ptr %member40, align 8
  %var41 = getelementptr inbounds %struct.InitDesg, ptr %desg237, i64 0, i32 3
  store ptr null, ptr %var41, align 8
  %children42 = getelementptr inbounds %struct.Initializer, ptr %init, i64 0, i32 5
  %15 = load ptr, ptr %children42, align 8
  %idx43 = getelementptr inbounds %struct.Member, ptr %cond, i64 0, i32 4
  %16 = load i32, ptr %idx43, align 8
  %idxprom44 = sext i32 %16 to i64
  %arrayidx45 = getelementptr inbounds ptr, ptr %15, i64 %idxprom44
  %17 = load ptr, ptr %arrayidx45, align 8
  %ty46 = getelementptr inbounds %struct.Member, ptr %cond, i64 0, i32 1
  %18 = load ptr, ptr %ty46, align 8
  %call47 = call fastcc ptr @create_lvar_init(ptr noundef %17, ptr noundef %18, ptr noundef nonnull %desg237, ptr noundef %tok)
  br label %return

if.end48:                                         ; preds = %entry
  %expr49.phi.trans.insert = getelementptr inbounds %struct.Initializer, ptr %init, i64 0, i32 4
  %.pre = load ptr, ptr %expr49.phi.trans.insert, align 8
  %19 = icmp eq ptr %.pre, null
  br i1 %19, label %if.then51, label %if.end53

if.then51:                                        ; preds = %if.end48
  %call.i44 = tail call noalias noundef dereferenceable_or_null(288) ptr @calloc(i64 noundef 1, i64 noundef 288) #14
  %tok2.i45 = getelementptr inbounds %struct.Node, ptr %call.i44, i64 0, i32 3
  store ptr %tok, ptr %tok2.i45, align 8
  br label %return

if.end53:                                         ; preds = %land.lhs.true, %if.end48
  %expr49 = getelementptr inbounds %struct.Initializer, ptr %init, i64 0, i32 4
  %call54 = tail call fastcc ptr @init_desg_expr(ptr noundef %desg, ptr noundef %tok)
  %20 = load ptr, ptr %expr49, align 8
  %call.i.i46 = tail call noalias noundef dereferenceable_or_null(288) ptr @calloc(i64 noundef 1, i64 noundef 288) #14
  store i32 16, ptr %call.i.i46, align 16
  %tok2.i.i47 = getelementptr inbounds %struct.Node, ptr %call.i.i46, i64 0, i32 3
  store ptr %tok, ptr %tok2.i.i47, align 8
  %lhs1.i48 = getelementptr inbounds %struct.Node, ptr %call.i.i46, i64 0, i32 4
  store ptr %call54, ptr %lhs1.i48, align 16
  %rhs2.i49 = getelementptr inbounds %struct.Node, ptr %call.i.i46, i64 0, i32 5
  store ptr %20, ptr %rhs2.i49, align 8
  br label %return

return:                                           ; preds = %for.body11, %for.body, %if.then6, %if.then, %if.end53, %if.then51, %cond.end
  %retval.0 = phi ptr [ %call47, %cond.end ], [ %call.i.i46, %if.end53 ], [ %call.i44, %if.then51 ], [ %call.i, %if.then ], [ %call.i38, %if.then6 ], [ %call.i.i, %for.body ], [ %call.i.i40, %for.body11 ]
  ret ptr %retval.0
}